; Function Attrs: null_pointer_is_valid sspstrong uwtable
define internal noundef ptr @protobuf_uri_message_type_copy_cb(ptr noundef returned writeonly captures(ret: address, provenance) %0, ptr noundef readonly captures(none) %1, i64 %2) #0 {
  %4 = load ptr, ptr %1, align 8
  %.not = icmp eq ptr %4, null
  br i1 %.not, label %7, label %5

5:                                                ; preds = %3
  %6 = tail call noalias ptr @g_strdup(ptr noundef nonnull %4)
  store ptr %6, ptr %0, align 8
  br label %7

7:                                                ; preds = %5, %3
  %8 = getelementptr inbounds nuw i8, ptr %1, i64 8
  %9 = load ptr, ptr %8, align 8
  %.not10 = icmp eq ptr %9, null
  br i1 %.not10, label %13, label %10

10:                                               ; preds = %7
  %11 = tail call noalias ptr @g_strdup(ptr noundef nonnull %9)
  %12 = getelementptr inbounds nuw i8, ptr %0, i64 8
  store ptr %11, ptr %12, align 8
  br label %13

13:                                               ; preds = %10, %7
  ret ptr %0
}